target datalayout = "e-m:e-p270:32:32-p271:32:32-p272:64:64-i64:64-i128:128-f80:128-n8:16:32:64-S128"
target triple = "x86_64-pc-linux-gnu"

%struct._packet_info = type { ptr, ptr, i32, i32, %struct.nstime_t, %struct.nstime_t, %struct.nstime_t, i8, ptr, ptr, ptr, ptr, %struct._address, %struct._address, %struct._address, %struct._address, %struct._address, %struct._address, i32, ptr, i8, [3 x i8], %struct.anon, i32, i32, i32, i32, ptr, i8, ptr, ptr, i16, i16, i32, i32, i16, i32, i32, ptr, ptr, ptr, i8, i8, i16, i16, i16, i32, i16, i16, ptr, ptr, ptr, ptr, ptr, i32, i32 }
%struct.nstime_t = type { i64, i32 }
%struct._address = type { i32, i32, ptr, ptr }
%struct.anon = type { i8, [3 x i8] }

@.str.367 = private unnamed_addr constant [24 x i8] c"Aligned EGPRS data bits\00", align 1

; Function Attrs: alwaysinline nounwind
define internal ptr @memmove.inline(ptr %0, ptr %1, i64 %2) #6 {
  %4 = alloca ptr, align 8
  %5 = alloca ptr, align 8
  %6 = alloca i64, align 8
  store ptr %0, ptr %4, align 8
  store ptr %1, ptr %5, align 8
  store i64 %2, ptr %6, align 8
  %7 = load ptr, ptr %4, align 8
  %8 = load ptr, ptr %5, align 8
  %9 = load i64, ptr %6, align 8
  %10 = load ptr, ptr %4, align 8
  %11 = call i64 @llvm.objectsize.i64.p0(ptr %10, i1 false, i1 true, i1 true)
  %12 = call ptr @__memmove_chk(ptr noundef %7, ptr noundef %8, i64 noundef %9, i64 noundef %11) #10
  ret ptr %12
}

; Function Attrs: nounwind null_pointer_is_valid sspstrong uwtable
define internal void @clone_aligned_buffer_lsbf(i32 noundef %0, i32 noundef %1, ptr noundef %2, ptr noundef %3) #4 {
  %5 = alloca i32, align 4
  %6 = alloca i32, align 4
  %7 = alloca ptr, align 8
  %8 = alloca ptr, align 8
  %9 = alloca i32, align 4
  %10 = alloca i32, align 4
  %11 = alloca i32, align 4
  %12 = alloca i8, align 1
  %13 = alloca i8, align 1
  %14 = alloca ptr, align 8
  %15 = alloca i32, align 4
  store i32 %0, ptr %5, align 4
  store i32 %1, ptr %6, align 4
  store ptr %2, ptr %7, align 8
  store ptr %3, ptr %8, align 8
  call void @llvm.lifetime.start.p0(i64 4, ptr %9) #10
  call void @llvm.lifetime.start.p0(i64 4, ptr %10) #10
  call void @llvm.lifetime.start.p0(i64 4, ptr %11) #10
  call void @llvm.lifetime.start.p0(i64 1, ptr %12) #10
  call void @llvm.lifetime.start.p0(i64 1, ptr %13) #10
  call void @llvm.lifetime.start.p0(i64 8, ptr %14) #10
  %16 = load i32, ptr %5, align 4
  %17 = udiv i32 %16, 8
  store i32 %17, ptr %9, align 4
  %18 = load i32, ptr %5, align 4
  %19 = urem i32 %18, 8
  store i32 %19, ptr %10, align 4
  %20 = load i32, ptr %10, align 4
  %21 = icmp eq i32 %20, 0
  br i1 %21, label %22, label %31

22:                                               ; preds = %4
  %23 = load ptr, ptr %8, align 8
  %24 = load ptr, ptr %7, align 8
  %25 = load i32, ptr %9, align 4
  %26 = zext i32 %25 to i64
  %27 = getelementptr i8, ptr %24, i64 %26
  %28 = load i32, ptr %6, align 4
  %29 = zext i32 %28 to i64
  %30 = call ptr @memmove.inline(ptr noundef %23, ptr noundef %27, i64 noundef %29) #10
  store i32 1, ptr %15, align 4
  br label %68

31:                                               ; preds = %4
  %32 = load ptr, ptr %8, align 8
  store ptr %32, ptr %14, align 8
  %33 = load ptr, ptr %7, align 8
  %34 = load i32, ptr %9, align 4
  %35 = zext i32 %34 to i64
  %36 = getelementptr i8, ptr %33, i64 %35
  store ptr %36, ptr %7, align 8
  %37 = load ptr, ptr %7, align 8
  %38 = getelementptr i8, ptr %37, i32 1
  store ptr %38, ptr %7, align 8
  %39 = load i8, ptr %37, align 1
  store i8 %39, ptr %13, align 1
  store i32 0, ptr %11, align 4
  br label %40

40:                                               ; preds = %64, %31
  %41 = load i32, ptr %11, align 4
  %42 = load i32, ptr %6, align 4
  %43 = icmp ult i32 %41, %42
  br i1 %43, label %44, label %67

44:                                               ; preds = %40
  %45 = load ptr, ptr %7, align 8
  %46 = load i32, ptr %11, align 4
  %47 = zext i32 %46 to i64
  %48 = getelementptr i8, ptr %45, i64 %47
  %49 = load i8, ptr %48, align 1
  store i8 %49, ptr %12, align 1
  %50 = load i8, ptr %13, align 1
  %51 = zext i8 %50 to i32
  %52 = load i32, ptr %10, align 4
  %53 = ashr i32 %51, %52
  %54 = load i8, ptr %12, align 1
  %55 = zext i8 %54 to i32
  %56 = load i32, ptr %10, align 4
  %57 = sub i32 8, %56
  %58 = shl i32 %55, %57
  %59 = or i32 %53, %58
  %60 = trunc i32 %59 to i8
  %61 = load ptr, ptr %14, align 8
  %62 = getelementptr i8, ptr %61, i32 1
  store ptr %62, ptr %14, align 8
  store i8 %60, ptr %61, align 1
  %63 = load i8, ptr %12, align 1
  store i8 %63, ptr %13, align 1
  br label %64

64:                                               ; preds = %44
  %65 = load i32, ptr %11, align 4
  %66 = add i32 %65, 1
  store i32 %66, ptr %11, align 4
  br label %40, !llvm.loop !10

67:                                               ; preds = %40
  store i32 0, ptr %15, align 4
  br label %68

68:                                               ; preds = %67, %22
  call void @llvm.lifetime.end.p0(i64 8, ptr %14) #10
  call void @llvm.lifetime.end.p0(i64 1, ptr %13) #10
  call void @llvm.lifetime.end.p0(i64 1, ptr %12) #10
  call void @llvm.lifetime.end.p0(i64 4, ptr %11) #10
  call void @llvm.lifetime.end.p0(i64 4, ptr %10) #10
  call void @llvm.lifetime.end.p0(i64 4, ptr %9) #10
  %69 = load i32, ptr %15, align 4
  switch i32 %69, label %71 [
    i32 0, label %70
    i32 1, label %70
  ]

70:                                               ; preds = %68, %68
  ret void

71:                                               ; preds = %68
  unreachable
}

; Function Attrs: null_pointer_is_valid sspstrong uwtable
define internal ptr @get_egprs_data_block(ptr noundef %0, i32 noundef %1, i32 noundef %2, ptr noundef %3) #0 {
  %5 = alloca ptr, align 8
  %6 = alloca i32, align 4
  %7 = alloca i32, align 4
  %8 = alloca ptr, align 8
  %9 = alloca ptr, align 8
  %10 = alloca i32, align 4
  %11 = alloca ptr, align 8
  %12 = alloca i32, align 4
  %13 = alloca i32, align 4
  store ptr %0, ptr %5, align 8
  store i32 %1, ptr %6, align 4
  store i32 %2, ptr %7, align 4
  store ptr %3, ptr %8, align 8
  call void @llvm.lifetime.start.p0(i64 8, ptr %9) #10
  call void @llvm.lifetime.start.p0(i64 4, ptr %10) #10
  store i32 6, ptr %10, align 4
  call void @llvm.lifetime.start.p0(i64 8, ptr %11) #10
  call void @llvm.lifetime.start.p0(i64 4, ptr %12) #10
  %14 = load i32, ptr %6, align 4
  %15 = load i32, ptr %7, align 4
  %16 = add i32 %14, %15
  %17 = add i32 %16, 7
  %18 = udiv i32 %17, 8
  store i32 %18, ptr %12, align 4
  call void @llvm.lifetime.start.p0(i64 4, ptr %13) #10
  %19 = load i32, ptr %7, align 4
  %20 = add i32 6, %19
  %21 = add i32 %20, 7
  %22 = udiv i32 %21, 8
  store i32 %22, ptr %13, align 4
  %23 = load ptr, ptr %5, align 8
  %24 = load i32, ptr %12, align 4
  call void @tvb_ensure_bytes_exist(ptr noundef %23, i32 noundef 0, i32 noundef %24)
  %25 = load ptr, ptr %8, align 8
  %26 = getelementptr inbounds nuw %struct._packet_info, ptr %25, i32 0, i32 51
  %27 = load ptr, ptr %26, align 8
  %28 = load i32, ptr %13, align 4
  %29 = zext i32 %28 to i64
  %30 = call noalias ptr @wmem_alloc(ptr noundef %27, i64 noundef %29) #11
  store ptr %30, ptr %11, align 8
  %31 = load i32, ptr %6, align 4
  %32 = sub i32 %31, 6
  %33 = load i32, ptr %13, align 4
  %34 = load ptr, ptr %5, align 8
  %35 = load i32, ptr %12, align 4
  %36 = call ptr @tvb_get_ptr(ptr noundef %34, i32 noundef 0, i32 noundef %35)
  %37 = load ptr, ptr %11, align 8
  call void @clone_aligned_buffer_lsbf(i32 noundef %32, i32 noundef %33, ptr noundef %36, ptr noundef %37)
  %38 = load ptr, ptr %11, align 8
  %39 = getelementptr i8, ptr %38, i64 0
  %40 = load i8, ptr %39, align 1
  %41 = zext i8 %40 to i32
  %42 = ashr i32 %41, 6
  %43 = trunc i32 %42 to i8
  %44 = load ptr, ptr %11, align 8
  %45 = getelementptr i8, ptr %44, i64 0
  store i8 %43, ptr %45, align 1
  %46 = load ptr, ptr %5, align 8
  %47 = load ptr, ptr %11, align 8
  %48 = load i32, ptr %13, align 4
  %49 = load i32, ptr %13, align 4
  %50 = call ptr @tvb_new_child_real_data(ptr noundef %46, ptr noundef %47, i32 noundef %48, i32 noundef %49)
  store ptr %50, ptr %9, align 8
  %51 = load ptr, ptr %8, align 8
  %52 = load ptr, ptr %9, align 8
  call void @add_new_data_source(ptr noundef %51, ptr noundef %52, ptr noundef @.str.367)
  %53 = load ptr, ptr %9, align 8
  call void @llvm.lifetime.end.p0(i64 4, ptr %13) #10
  call void @llvm.lifetime.end.p0(i64 4, ptr %12) #10
  call void @llvm.lifetime.end.p0(i64 8, ptr %11) #10
  call void @llvm.lifetime.end.p0(i64 4, ptr %10) #10
  call void @llvm.lifetime.end.p0(i64 8, ptr %9) #10
  ret ptr %53
}