; Function Attrs: null_pointer_is_valid sspstrong uwtable
define internal fastcc noundef ptr @get_egprs_data_block(ptr noundef %0, i32 noundef %1, i32 noundef %2, ptr noundef %3) unnamed_addr #0 {
  %5 = add i32 %1, 7
  %6 = add i32 %5, %2
  %7 = lshr i32 %6, 3
  %8 = add i32 %2, 13
  %9 = lshr i32 %8, 3
  tail call void @tvb_ensure_bytes_exist(ptr noundef %0, i32 noundef 0, i32 noundef %7)
  %10 = getelementptr inbounds nuw i8, ptr %3, i64 408
  %11 = load ptr, ptr %10, align 8
  %12 = zext nneg i32 %9 to i64
  %13 = tail call noalias ptr @wmem_alloc(ptr noundef %11, i64 noundef %12) #8
  %14 = add i32 %1, -6
  %15 = tail call ptr @tvb_get_ptr(ptr noundef %0, i32 noundef 0, i32 noundef %7)
  %16 = lshr i32 %14, 3
  %17 = and i32 %14, 7
  %18 = icmp eq i32 %17, 0
  %19 = zext nneg i32 %16 to i64
  %20 = getelementptr i8, ptr %15, i64 %19
  br i1 %18, label %21, label %22

21:                                               ; preds = %4
  tail call void @llvm.memmove.p0.p0.i64(ptr noundef align 1 %13, ptr noundef align 1 %20, i64 noundef range(i64 0, 536870912) %12, i1 noundef false) #7
  br label %clone_aligned_buffer_lsbf.exit

22:                                               ; preds = %4
  %23 = getelementptr i8, ptr %20, i64 1
  %.not.i = icmp ult i32 %8, 8
  br i1 %.not.i, label %clone_aligned_buffer_lsbf.exit, label %.lr.ph.i

.lr.ph.i:                                         ; preds = %22
  %24 = load i8, ptr %20, align 1
  %25 = trunc i32 %14 to i8
  br label %26

26:                                               ; preds = %26, %.lr.ph.i
  %indvars.iv.i = phi i64 [ 0, %.lr.ph.i ], [ %indvars.iv.next.i, %26 ]
  %.026.i = phi ptr [ %13, %.lr.ph.i ], [ %30, %26 ]
  %.02125.i = phi i8 [ %24, %.lr.ph.i ], [ %28, %26 ]
  %27 = getelementptr i8, ptr %23, i64 %indvars.iv.i
  %28 = load i8, ptr %27, align 1
  %29 = tail call i8 @llvm.fshr.i8(i8 %28, i8 %.02125.i, i8 %25)
  %30 = getelementptr i8, ptr %.026.i, i64 1
  store i8 %29, ptr %.026.i, align 1
  %indvars.iv.next.i = add nuw nsw i64 %indvars.iv.i, 1
  %exitcond.not.i = icmp eq i64 %indvars.iv.next.i, %12
  br i1 %exitcond.not.i, label %clone_aligned_buffer_lsbf.exit, label %26, !llvm.loop !8

clone_aligned_buffer_lsbf.exit:                   ; preds = %26, %21, %22
  %31 = load i8, ptr %13, align 1
  %32 = lshr i8 %31, 6
  store i8 %32, ptr %13, align 1
  %33 = tail call ptr @tvb_new_child_real_data(ptr noundef %0, ptr noundef %13, i32 noundef %9, i32 noundef %9)
  tail call void @add_new_data_source(ptr noundef %3, ptr noundef %33, ptr noundef nonnull @.str.367)
  ret ptr %33
}